Certificate:
    Data:
        Version: 3 (0x2)
        Serial Number:
            f0:54:0b:d7:6f:6f:f8:6c:20:1b:7c:19:d8:ff:2c:c2
    Signature Algorithm: sha256WithRSAEncryption
        Issuer: C=AR, ST=Buenos Aires, L=Ciudad Aut\xC3\xB3noma de Buenos Aires, O=TEKii SRL, CN=TEKii SRL PROD CA 3
        Validity
            Not Before: Sep  8 19:10:44 2015 GMT
            Not After : Sep  7 19:10:44 2017 GMT
        Subject: C=AR, ST=Buenos Aires, L=Ciudad Aut\xC3\xB3noma de Buenos Aires, O=TEKii SRL, CN=TEKii SRL PROD CA 3
        Subject Public Key Info:
            Public Key Algorithm: rsaEncryption
                Public-Key: (2048 bit)
                Modulus:
                    00:cf:3c:8a:1a:a1:81:a2:ec:72:46:f0:0b:6d:eb:
                    54:7b:7b:03:11:8f:02:1e:af:92:87:fd:8b:9b:a1:
                    da:fa:e2:16:69:47:eb:41:66:71:43:2d:3d:cf:b1:
                    cf:bf:75:7e:c6:48:ee:cc:67:e0:e7:bb:f5:ea:ba:
                    01:1a:6b:4a:b4:e2:d0:8c:fd:f3:19:dd:3e:53:7c:
                    c6:3b:88:2e:8f:80:b7:19:25:03:60:33:66:29:cd:
                    7b:c9:36:53:dd:d4:ea:4f:f1:d7:af:2c:d5:e7:31:
                    99:ab:86:c6:dc:f8:6a:f1:b7:0e:e6:fa:95:bf:58:
                    95:8b:6f:2b:b8:7b:0f:a3:71:32:76:a3:d9:d5:e5:
                    27:7d:d0:55:f4:7a:48:28:26:55:ca:e3:f0:3c:03:
                    9f:24:87:4f:40:c2:b2:96:e7:d2:f9:90:b8:79:e8:
                    32:b2:b7:81:b1:c3:30:7b:f1:b9:94:47:1f:e3:80:
                    d5:14:fb:22:3c:8b:81:91:35:54:20:1d:71:77:31:
                    7f:87:8a:ab:50:f7:ea:44:c2:28:0b:d1:fa:db:ab:
                    84:12:37:66:97:a2:cd:d9:e4:07:cf:d8:27:12:4a:
                    bd:a6:72:09:25:b4:56:a2:5d:41:7e:da:f0:8c:ba:
                    15:8a:b6:cf:b8:b5:b6:29:e6:80:d7:2f:fe:b8:cf:
                    f5:95
                Exponent: 65537 (0x10001)
        X509v3 extensions:
            X509v3 Basic Constraints: critical
                CA:TRUE, pathlen:0
            X509v3 CRL Distribution Points: 

                Full Name:
                  URI:http://www.tekii.com.ar/prod-ca.crl

            X509v3 Extended Key Usage: 
                TLS Web Client Authentication, TLS Web Server Authentication
            X509v3 Key Usage: critical
                Certificate Sign, CRL Sign
            X509v3 Name Constraints: 
                Permitted:
                  DNS:tekii.com.ar
                  DNS:teky.co
                  DNS:teky.io
                Excluded:
                  IP:0.0.0.0/0.0.0.0
                  IP:0:0:0:0:0:0:0:0/0:0:0:0:0:0:0:0

            X509v3 Subject Key Identifier: 
                CE:53:CB:FE:D0:D4:17:D8:7E:FC:64:1E:C5:C8:DD:2C:F0:F9:07:84
    Signature Algorithm: sha256WithRSAEncryption
         6e:a4:fc:a5:bd:7a:e9:28:bb:08:82:77:90:64:ff:3b:06:04:
         30:fd:3f:40:4a:69:46:0d:da:70:ba:f2:84:e5:09:f5:ba:60:
         b6:26:3e:55:52:c2:3e:e2:23:20:71:6a:2f:02:65:75:32:95:
         f8:01:c4:36:40:b2:a1:03:56:79:dd:b1:8b:23:81:a1:0d:56:
         04:d7:42:1d:71:74:82:23:0c:ef:ea:f7:a0:09:9b:37:46:57:
         b9:1f:c7:69:28:24:b5:21:48:4a:8d:8e:35:1d:65:19:4d:21:
         0f:cf:3b:66:77:49:d4:f7:1a:28:db:05:0d:3e:a8:29:e3:e9:
         18:b2:33:53:b2:02:cf:4d:c3:ef:cc:a1:b1:11:b5:27:25:ca:
         63:74:06:69:5a:0f:66:33:5c:aa:23:ca:23:85:3f:b2:41:58:
         4b:7d:8e:0f:4b:b8:1b:6b:2f:e3:b4:75:9b:47:95:d7:00:3c:
         12:46:10:54:b6:12:68:5b:0f:0d:09:e5:eb:5a:60:ac:b9:91:
         e9:1f:d3:1c:0f:0f:aa:9c:d6:a8:4d:e5:6a:04:77:e9:bb:ad:
         0b:aa:a4:e5:83:d5:94:9a:09:e7:82:db:91:0d:06:fe:5a:19:
         8e:2e:5f:48:16:9f:b6:53:d0:ed:8f:c5:a5:4e:04:62:aa:51:
         b2:13:9d:5e
-----BEGIN CERTIFICATE-----
MIIEkTCCA3mgAwIBAgIRAPBUC9dvb/hsIBt8Gdj/LMIwDQYJKoZIhvcNAQELBQAw
gYExCzAJBgNVBAYTAkFSMRUwEwYDVQQIDAxCdWVub3MgQWlyZXMxKTAnBgNVBAcM
IENpdWRhZCBBdXTDs25vbWEgZGUgQnVlbm9zIEFpcmVzMRIwEAYDVQQKDAlURUtp
aSBTUkwxHDAaBgNVBAMME1RFS2lpIFNSTCBQUk9EIENBIDMwHhcNMTUwOTA4MTkx
MDQ0WhcNMTcwOTA3MTkxMDQ0WjCBgTELMAkGA1UEBhMCQVIxFTATBgNVBAgMDEJ1
ZW5vcyBBaXJlczEpMCcGA1UEBwwgQ2l1ZGFkIEF1dMOzbm9tYSBkZSBCdWVub3Mg
QWlyZXMxEjAQBgNVBAoMCVRFS2lpIFNSTDEcMBoGA1UEAwwTVEVLaWkgU1JMIFBS
T0QgQ0EgMzCCASIwDQYJKoZIhvcNAQEBBQADggEPADCCAQoCggEBAM88ihqhgaLs
ckbwC23rVHt7AxGPAh6vkof9i5uh2vriFmlH60FmcUMtPc+xz791fsZI7sxn4Oe7
9eq6ARprSrTi0Iz98xndPlN8xjuILo+AtxklA2AzZinNe8k2U93U6k/x168s1ecx
mauGxtz4avG3Dub6lb9YlYtvK7h7D6NxMnaj2dXlJ33QVfR6SCgmVcrj8DwDnySH
T0DCspbn0vmQuHnoMrK3gbHDMHvxuZRHH+OA1RT7IjyLgZE1VCAdcXcxf4eKq1D3
6kTCKAvR+turhBI3ZpeizdnkB8/YJxJKvaZyCSW0VqJdQX7a8Iy6FYq2z7i1tinm
gNcv/rjP9ZUCAwEAAaOCAQAwgf0wEgYDVR0TAQH/BAgwBgEB/wIBADA0BgNVHR8E
LTArMCmgJ6AlhiNodHRwOi8vd3d3LnRla2lpLmNvbS5hci9wcm9kLWNhLmNybDAd
BgNVHSUEFjAUBggrBgEFBQcDAgYIKwYBBQUHAwEwDgYDVR0PAQH/BAQDAgEGMGMG
A1UdHgRcMFqgJjAOggx0ZWtpaS5jb20uYXIwCYIHdGVreS5jbzAJggd0ZWt5Lmlv
oTAwCocIAAAAAAAAAAAwIocgAAAAAAAAAAAAAAAAAAAAAAAAAAAAAAAAAAAAAAAA
AAAwHQYDVR0OBBYEFM5Ty/7Q1BfYfvxkHsXI3Szw+QeEMA0GCSqGSIb3DQEBCwUA
A4IBAQBupPylvXrpKLsIgneQZP87BgQw/T9ASmlGDdpwuvKE5Qn1umC2Jj5VUsI+
4iMgcWovAmV1MpX4AcQ2QLKhA1Z53bGLI4GhDVYE10IdcXSCIwzv6vegCZs3Rle5
H8dpKCS1IUhKjY41HWUZTSEPzztmd0nU9xoo2wUNPqgp4+kYsjNTsgLPTcPvzKGx
EbUnJcpjdAZpWg9mM1yqI8ojhT+yQVhLfY4PS7gbay/jtHWbR5XXADwSRhBUthJo
Ww8NCeXrWmCsuZHpH9McDw+qnNaoTeVqBHfpu60LqqTlg9WUmgnngtuRDQb+WhmO
Ll9IFp+2U9Dtj8WlTgRiqlGyE51e
-----END CERTIFICATE-----
